target datalayout = "e-m:e-p270:32:32-p271:32:32-p272:64:64-i64:64-i128:128-f80:128-n8:16:32:64-S128"
target triple = "x86_64-unknown-linux-gnu"

%"class.sat::scc" = type { ptr, i8, i8, i32, i32, %"class.sat::big" }
%"class.sat::big" = type { ptr, i32, %class.vector, %class.svector, %class.svector.1, %class.svector.1, %class.svector.3, %class.svector.3, i8, i8, %class.vector }
%class.svector = type { %class.vector.0 }
%class.vector.0 = type { ptr }
%class.svector.1 = type { %class.vector.2 }
%class.vector.2 = type { ptr }
%class.svector.3 = type { %class.vector.4 }
%class.vector.4 = type { ptr }
%class.vector = type { ptr }

@.str = private unnamed_addr constant [18 x i8] c"sat scc elim vars\00", align 1
@.str.2 = private unnamed_addr constant [20 x i8] c"sat scc elim binary\00", align 1

; Function Attrs: mustprogress uwtable
define hidden void @_ZNK3sat3scc18collect_statisticsER10statistics(ptr noundef nonnull align 8 dereferenceable(104) %this, ptr noundef nonnull align 8 dereferenceable(16) %st) #5 align 2 {
entry:
  %this.addr = alloca ptr, align 8
  %st.addr = alloca ptr, align 8
  store ptr %this, ptr %this.addr, align 8
  store ptr %st, ptr %st.addr, align 8
  %this1 = load ptr, ptr %this.addr, align 8
  %0 = load ptr, ptr %st.addr, align 8
  %m_num_elim = getelementptr inbounds %"class.sat::scc", ptr %this1, i32 0, i32 3
  %1 = load i32, ptr %m_num_elim, align 4
  call void @_ZN10statistics6updateEPKcj(ptr noundef nonnull align 8 dereferenceable(16) %0, ptr noundef @.str, i32 noundef %1)
  %2 = load ptr, ptr %st.addr, align 8
  %m_num_elim_bin = getelementptr inbounds %"class.sat::scc", ptr %this1, i32 0, i32 4
  %3 = load i32, ptr %m_num_elim_bin, align 8
  call void @_ZN10statistics6updateEPKcj(ptr noundef nonnull align 8 dereferenceable(16) %2, ptr noundef @.str.2, i32 noundef %3)
  ret void
}