; Function Attrs: mustprogress uwtable
define hidden void @_ZNK3sat3scc18collect_statisticsER10statistics(ptr nocapture noundef nonnull readonly align 8 dereferenceable(104) %this, ptr noundef nonnull align 8 dereferenceable(16) %st) local_unnamed_addr #3 align 2 {
entry:
  %m_num_elim = getelementptr inbounds i8, ptr %this, i64 12
  %0 = load i32, ptr %m_num_elim, align 4
  tail call void @_ZN10statistics6updateEPKcj(ptr noundef nonnull align 8 dereferenceable(16) %st, ptr noundef nonnull @.str, i32 noundef %0)
  %m_num_elim_bin = getelementptr inbounds i8, ptr %this, i64 16
  %1 = load i32, ptr %m_num_elim_bin, align 8
  tail call void @_ZN10statistics6updateEPKcj(ptr noundef nonnull align 8 dereferenceable(16) %st, ptr noundef nonnull @.str.2, i32 noundef %1)
  ret void
}